target datalayout = "e-m:e-p270:32:32-p271:32:32-p272:64:64-i64:64-i128:128-f80:128-n8:16:32:64-S128"
target triple = "x86_64-pc-linux-gnu"

%"class.llvm::ilist_node_base" = type { %"class.llvm::ilist_detail::node_base_prevnext" }
%"class.llvm::ilist_detail::node_base_prevnext" = type { ptr, ptr }
%"class.llvm::raw_ostream" = type { ptr, i32, ptr, ptr, ptr, i8, i32 }
%"class.std::unique_ptr" = type { %"struct.std::__uniq_ptr_data" }
%"struct.std::__uniq_ptr_data" = type { %"class.std::__uniq_ptr_impl" }
%"class.std::__uniq_ptr_impl" = type { %"class.std::tuple" }
%"class.std::tuple" = type { %"struct.std::_Tuple_impl" }
%"struct.std::_Tuple_impl" = type { %"struct.std::_Head_base.1" }
%"struct.std::_Head_base.1" = type { ptr }
%"class.std::function" = type { %"class.std::_Function_base", ptr }
%"class.std::_Function_base" = type { %"union.std::_Any_data", ptr }
%"union.std::_Any_data" = type { %"union.std::_Nocopy_types" }
%"union.std::_Nocopy_types" = type { { i64, i64 } }
%"class.std::function.2" = type { %"class.std::_Function_base", ptr }
%"class.llvm::SlotTracker" = type <{ %"class.llvm::AbstractSlotTrackerStorage", ptr, ptr, i8, i8, [6 x i8], %"class.std::function", %"class.std::function.2", ptr, %"class.llvm::DenseMap", i32, [4 x i8], %"class.llvm::DenseMap", i32, [4 x i8], %"class.llvm::DenseMap.4", i32, [4 x i8], %"class.llvm::DenseMap.7", i32, [4 x i8], %"class.llvm::StringMap", i32, [4 x i8], %"class.llvm::DenseMap.10", i32, [4 x i8], %"class.llvm::StringMap", i32, [4 x i8], %"class.llvm::StringMap", i32, [4 x i8] }>
%"class.llvm::AbstractSlotTrackerStorage" = type { ptr }
%"class.llvm::DenseMap" = type <{ ptr, i32, i32, i32, [4 x i8] }>
%"class.llvm::DenseMap.4" = type <{ ptr, i32, i32, i32, [4 x i8] }>
%"class.llvm::DenseMap.7" = type <{ ptr, i32, i32, i32, [4 x i8] }>
%"class.llvm::DenseMap.10" = type <{ ptr, i32, i32, i32, [4 x i8] }>
%"class.llvm::StringMap" = type { %"class.llvm::StringMapImpl" }
%"class.llvm::StringMapImpl" = type { ptr, i32, i32, i32, i32 }
%"class.std::__cxx11::basic_string" = type { %"struct.std::__cxx11::basic_string<char>::_Alloc_hider", i64, %union.anon }
%"struct.std::__cxx11::basic_string<char>::_Alloc_hider" = type { ptr }
%union.anon = type { i64, [8 x i8] }
%"class.llvm::SmallVectorBase.86" = type { ptr, i32, i32 }
%"class.llvm::ilist_node_impl.62" = type { %"class.llvm::ilist_node_base" }
%"class.llvm::SmallVectorBase" = type { ptr, i64, i64 }
%"class.llvm::formatted_raw_ostream" = type <{ %"class.llvm::raw_ostream", ptr, %"struct.std::pair.255", ptr, %"class.llvm::SmallString", i8, [7 x i8] }>
%"struct.std::pair.255" = type { i32, i32 }
%"class.llvm::SmallString" = type { %"class.llvm::SmallVector.base", [4 x i8] }
%"class.llvm::SmallVector.base" = type <{ %"class.llvm::SmallVectorImpl.258", %"struct.llvm::SmallVectorStorage.261" }>
%"class.llvm::SmallVectorImpl.258" = type { %"class.llvm::SmallVectorTemplateBase.259" }
%"class.llvm::SmallVectorTemplateBase.259" = type { %"class.llvm::SmallVectorTemplateCommon.260" }
%"class.llvm::SmallVectorTemplateCommon.260" = type { %"class.llvm::SmallVectorBase" }
%"struct.llvm::SmallVectorStorage.261" = type { [4 x i8] }
%"class.(anonymous namespace)::AssemblyWriter" = type { ptr, ptr, ptr, %"class.std::unique_ptr", ptr, %"class.(anonymous namespace)::TypePrinting", ptr, %"class.llvm::SetVector", i8, i8, [6 x i8], %"class.llvm::DenseMap.298", %"class.llvm::SmallVector.301", %"class.llvm::SmallVector.301", %"class.llvm::DenseMap.306" }
%"class.(anonymous namespace)::TypePrinting" = type { ptr, %"class.llvm::TypeFinder", %"class.llvm::DenseMap.285", %"class.std::vector.280" }
%"class.llvm::TypeFinder" = type <{ %"class.llvm::DenseSet", %"class.llvm::DenseSet.265", %"class.llvm::DenseSet.270", %"class.llvm::DenseSet.275", %"class.std::vector.280", i8, [7 x i8] }>
%"class.llvm::DenseSet" = type { %"class.llvm::detail::DenseSetImpl" }
%"class.llvm::detail::DenseSetImpl" = type { %"class.llvm::DenseMap.262" }
%"class.llvm::DenseMap.262" = type <{ ptr, i32, i32, i32, [4 x i8] }>
%"class.llvm::DenseSet.265" = type { %"class.llvm::detail::DenseSetImpl.266" }
%"class.llvm::detail::DenseSetImpl.266" = type { %"class.llvm::DenseMap.267" }
%"class.llvm::DenseMap.267" = type <{ ptr, i32, i32, i32, [4 x i8] }>
%"class.llvm::DenseSet.270" = type { %"class.llvm::detail::DenseSetImpl.271" }
%"class.llvm::detail::DenseSetImpl.271" = type { %"class.llvm::DenseMap.272" }
%"class.llvm::DenseMap.272" = type <{ ptr, i32, i32, i32, [4 x i8] }>
%"class.llvm::DenseSet.275" = type { %"class.llvm::detail::DenseSetImpl.276" }
%"class.llvm::detail::DenseSetImpl.276" = type { %"class.llvm::DenseMap.277" }
%"class.llvm::DenseMap.277" = type <{ ptr, i32, i32, i32, [4 x i8] }>
%"class.llvm::DenseMap.285" = type <{ ptr, i32, i32, i32, [4 x i8] }>
%"class.std::vector.280" = type { %"struct.std::_Vector_base.281" }
%"struct.std::_Vector_base.281" = type { %"struct.std::_Vector_base<llvm::StructType *, std::allocator<llvm::StructType *>>::_Vector_impl" }
%"struct.std::_Vector_base<llvm::StructType *, std::allocator<llvm::StructType *>>::_Vector_impl" = type { %"struct.std::_Vector_base<llvm::StructType *, std::allocator<llvm::StructType *>>::_Vector_impl_data" }
%"struct.std::_Vector_base<llvm::StructType *, std::allocator<llvm::StructType *>>::_Vector_impl_data" = type { ptr, ptr, ptr }
%"class.llvm::SetVector" = type { %"class.llvm::DenseSet.288", %"class.llvm::SmallVector.293" }
%"class.llvm::DenseSet.288" = type { %"class.llvm::detail::DenseSetImpl.289" }
%"class.llvm::detail::DenseSetImpl.289" = type { %"class.llvm::DenseMap.290" }
%"class.llvm::DenseMap.290" = type <{ ptr, i32, i32, i32, [4 x i8] }>
%"class.llvm::SmallVector.293" = type { %"class.llvm::SmallVectorImpl.294" }
%"class.llvm::SmallVectorImpl.294" = type { %"class.llvm::SmallVectorTemplateBase.295" }
%"class.llvm::SmallVectorTemplateBase.295" = type { %"class.llvm::SmallVectorTemplateCommon.296" }
%"class.llvm::SmallVectorTemplateCommon.296" = type { %"class.llvm::SmallVectorBase.86" }
%"class.llvm::DenseMap.298" = type <{ ptr, i32, i32, i32, [4 x i8] }>
%"class.llvm::SmallVector.301" = type { %"class.llvm::SmallVectorImpl.302", %"struct.llvm::SmallVectorStorage.305" }
%"class.llvm::SmallVectorImpl.302" = type { %"class.llvm::SmallVectorTemplateBase.303" }
%"class.llvm::SmallVectorTemplateBase.303" = type { %"class.llvm::SmallVectorTemplateCommon.304" }
%"class.llvm::SmallVectorTemplateCommon.304" = type { %"class.llvm::SmallVectorBase.86" }
%"struct.llvm::SmallVectorStorage.305" = type { [128 x i8] }
%"class.llvm::DenseMap.306" = type <{ ptr, i32, i32, i32, [4 x i8] }>
%"class.llvm::NamedMDNode" = type { %"class.llvm::ilist_node.117", %"class.std::__cxx11::basic_string", ptr, ptr }
%"class.llvm::ilist_node.117" = type { %"class.llvm::ilist_node_impl.62" }

@_ZTVN4llvm21formatted_raw_ostreamE = external unnamed_addr constant { [15 x ptr] }, align 8
@_ZTVN4llvm11raw_ostreamE = external unnamed_addr constant { [15 x ptr] }, align 8
@_ZN4llvm11SlotTrackerC1EPKNS_6ModuleEb = unnamed_addr alias void (ptr, ptr, i1), ptr @_ZN4llvm11SlotTrackerC2EPKNS_6ModuleEb

; Function Attrs: mustprogress nounwind uwtable
define linkonce_odr hidden noundef ptr @_ZNK4llvm25SmallVectorTemplateCommonIcvE10getFirstElEv(ptr noundef nonnull align 8 dereferenceable(24) %0) #0 comdat align 2 {
  %2 = alloca ptr, align 8
  store ptr %0, ptr %2, align 8
  %3 = load ptr, ptr %2, align 8
  %4 = getelementptr inbounds i8, ptr %3, i64 24
  ret ptr %4
}

; Function Attrs: mustprogress nounwind uwtable
define linkonce_odr hidden void @_ZN4llvm25SmallVectorTemplateCommonIcvEC2Em(ptr noundef nonnull align 8 dereferenceable(24) %0, i64 noundef %1) unnamed_addr #0 comdat align 2 {
  %3 = alloca ptr, align 8
  %4 = alloca i64, align 8
  store ptr %0, ptr %3, align 8
  store i64 %1, ptr %4, align 8
  %5 = load ptr, ptr %3, align 8
  %6 = call noundef ptr @_ZNK4llvm25SmallVectorTemplateCommonIcvE10getFirstElEv(ptr noundef nonnull align 8 dereferenceable(24) %5)
  %7 = load i64, ptr %4, align 8
  call void @_ZN4llvm15SmallVectorBaseImEC2EPvm(ptr noundef nonnull align 8 dereferenceable(24) %5, ptr noundef %6, i64 noundef %7)
  ret void
}

; Function Attrs: mustprogress nounwind uwtable
define linkonce_odr hidden noundef zeroext i1 @_ZNK4llvm25SmallVectorTemplateCommonIcvE7isSmallEv(ptr noundef nonnull align 8 dereferenceable(24) %0) #0 comdat align 2 {
  %2 = alloca ptr, align 8
  store ptr %0, ptr %2, align 8
  %3 = load ptr, ptr %2, align 8
  %4 = getelementptr inbounds nuw %"class.llvm::SmallVectorBase", ptr %3, i32 0, i32 0
  %5 = load ptr, ptr %4, align 8
  %6 = call noundef ptr @_ZNK4llvm25SmallVectorTemplateCommonIcvE10getFirstElEv(ptr noundef nonnull align 8 dereferenceable(24) %3)
  %7 = icmp eq ptr %5, %6
  ret i1 %7
}

; Function Attrs: mustprogress nounwind uwtable
define linkonce_odr hidden void @_ZN4llvm23SmallVectorTemplateBaseIcLb1EEC2Em(ptr noundef nonnull align 8 dereferenceable(24) %0, i64 noundef %1) unnamed_addr #0 comdat align 2 {
  %3 = alloca ptr, align 8
  %4 = alloca i64, align 8
  store ptr %0, ptr %3, align 8
  store i64 %1, ptr %4, align 8
  %5 = load ptr, ptr %3, align 8
  %6 = load i64, ptr %4, align 8
  call void @_ZN4llvm25SmallVectorTemplateCommonIcvEC2Em(ptr noundef nonnull align 8 dereferenceable(24) %5, i64 noundef %6)
  ret void
}

; Function Attrs: mustprogress nounwind uwtable
define linkonce_odr hidden void @_ZN4llvm15SmallVectorImplIcED2Ev(ptr noundef nonnull align 8 dereferenceable(24) %0) unnamed_addr #0 comdat align 2 {
  %2 = alloca ptr, align 8
  store ptr %0, ptr %2, align 8
  %3 = load ptr, ptr %2, align 8
  %4 = call noundef zeroext i1 @_ZNK4llvm25SmallVectorTemplateCommonIcvE7isSmallEv(ptr noundef nonnull align 8 dereferenceable(24) %3)
  br i1 %4, label %7, label %5

5:                                                ; preds = %1
  %6 = call noundef ptr @_ZN4llvm25SmallVectorTemplateCommonIcvE5beginEv(ptr noundef nonnull align 8 dereferenceable(24) %3)
  call void @free(ptr noundef %6) #11
  br label %7

7:                                                ; preds = %5, %1
  ret void
}

; Function Attrs: mustprogress nounwind uwtable
define linkonce_odr hidden void @_ZN4llvm23SmallVectorTemplateBaseIcLb1EE13destroy_rangeEPcS2_(ptr noundef %0, ptr noundef %1) #0 comdat align 2 {
  %3 = alloca ptr, align 8
  %4 = alloca ptr, align 8
  store ptr %0, ptr %3, align 8
  store ptr %1, ptr %4, align 8
  ret void
}

; Function Attrs: mustprogress nounwind uwtable
define linkonce_odr hidden noundef ptr @_ZN4llvm25SmallVectorTemplateCommonIcvE3endEv(ptr noundef nonnull align 8 dereferenceable(24) %0) #0 comdat align 2 {
  %2 = alloca ptr, align 8
  store ptr %0, ptr %2, align 8
  %3 = load ptr, ptr %2, align 8
  %4 = call noundef ptr @_ZN4llvm25SmallVectorTemplateCommonIcvE5beginEv(ptr noundef nonnull align 8 dereferenceable(24) %3)
  %5 = call noundef i64 @_ZNK4llvm15SmallVectorBaseImE4sizeEv(ptr noundef nonnull align 8 dereferenceable(24) %3)
  %6 = getelementptr inbounds i8, ptr %4, i64 %5
  ret ptr %6
}

; Function Attrs: mustprogress nounwind uwtable
define linkonce_odr hidden noundef ptr @_ZN4llvm25SmallVectorTemplateCommonIcvE5beginEv(ptr noundef nonnull align 8 dereferenceable(24) %0) #0 comdat align 2 {
  %2 = alloca ptr, align 8
  store ptr %0, ptr %2, align 8
  %3 = load ptr, ptr %2, align 8
  %4 = getelementptr inbounds nuw %"class.llvm::SmallVectorBase", ptr %3, i32 0, i32 0
  %5 = load ptr, ptr %4, align 8
  ret ptr %5
}

; Function Attrs: mustprogress nounwind uwtable
define linkonce_odr hidden void @_ZN4llvm15SmallVectorImplIcEC2Ej(ptr noundef nonnull align 8 dereferenceable(24) %0, i32 noundef %1) unnamed_addr #0 comdat align 2 {
  %3 = alloca ptr, align 8
  %4 = alloca i32, align 4
  store ptr %0, ptr %3, align 8
  store i32 %1, ptr %4, align 4
  %5 = load ptr, ptr %3, align 8
  %6 = load i32, ptr %4, align 4
  %7 = zext i32 %6 to i64
  call void @_ZN4llvm23SmallVectorTemplateBaseIcLb1EEC2Em(ptr noundef nonnull align 8 dereferenceable(24) %5, i64 noundef %7)
  ret void
}

; Function Attrs: mustprogress nounwind uwtable
define linkonce_odr hidden void @_ZN4llvm11SmallVectorIcLj4EED2Ev(ptr noundef nonnull align 8 dereferenceable(28) %0) unnamed_addr #0 comdat align 2 {
  %2 = alloca ptr, align 8
  store ptr %0, ptr %2, align 8
  %3 = load ptr, ptr %2, align 8
  %4 = call noundef ptr @_ZN4llvm25SmallVectorTemplateCommonIcvE5beginEv(ptr noundef nonnull align 8 dereferenceable(24) %3)
  %5 = call noundef ptr @_ZN4llvm25SmallVectorTemplateCommonIcvE3endEv(ptr noundef nonnull align 8 dereferenceable(24) %3)
  call void @_ZN4llvm23SmallVectorTemplateBaseIcLb1EE13destroy_rangeEPcS2_(ptr noundef %4, ptr noundef %5)
  call void @_ZN4llvm15SmallVectorImplIcED2Ev(ptr noundef nonnull align 8 dereferenceable(24) %3) #11
  ret void
}

; Function Attrs: mustprogress nounwind uwtable
define linkonce_odr hidden void @_ZN4llvm11SmallVectorIcLj4EEC2Ev(ptr noundef nonnull align 8 dereferenceable(28) %0) unnamed_addr #0 comdat align 2 {
  %2 = alloca ptr, align 8
  store ptr %0, ptr %2, align 8
  %3 = load ptr, ptr %2, align 8
  call void @_ZN4llvm15SmallVectorImplIcEC2Ej(ptr noundef nonnull align 8 dereferenceable(24) %3, i32 noundef 4)
  ret void
}

; Function Attrs: mustprogress nounwind uwtable
define linkonce_odr hidden void @_ZN4llvm11SmallStringILj4EED2Ev(ptr noundef nonnull align 8 dereferenceable(28) %0) unnamed_addr #0 comdat align 2 {
  %2 = alloca ptr, align 8
  store ptr %0, ptr %2, align 8
  %3 = load ptr, ptr %2, align 8
  call void @_ZN4llvm11SmallVectorIcLj4EED2Ev(ptr noundef nonnull align 8 dereferenceable(28) %3) #11
  ret void
}

; Function Attrs: mustprogress nounwind uwtable
define linkonce_odr hidden void @_ZN4llvm11raw_ostream5flushEv(ptr noundef nonnull align 8 dereferenceable(48) %0) #0 comdat align 2 {
  %2 = alloca ptr, align 8
  store ptr %0, ptr %2, align 8
  %3 = load ptr, ptr %2, align 8
  %4 = getelementptr inbounds nuw %"class.llvm::raw_ostream", ptr %3, i32 0, i32 4
  %5 = load ptr, ptr %4, align 8
  %6 = getelementptr inbounds nuw %"class.llvm::raw_ostream", ptr %3, i32 0, i32 2
  %7 = load ptr, ptr %6, align 8
  %8 = icmp ne ptr %5, %7
  br i1 %8, label %9, label %10

9:                                                ; preds = %1
  call void @_ZN4llvm11raw_ostream14flush_nonemptyEv(ptr noundef nonnull align 8 dereferenceable(48) %3)
  br label %10

10:                                               ; preds = %9, %1
  ret void
}

; Function Attrs: mustprogress nounwind uwtable
define linkonce_odr hidden void @_ZN4llvm11SmallStringILj4EEC2Ev(ptr noundef nonnull align 8 dereferenceable(28) %0) unnamed_addr #0 comdat align 2 {
  %2 = alloca ptr, align 8
  store ptr %0, ptr %2, align 8
  %3 = load ptr, ptr %2, align 8
  call void @_ZN4llvm11SmallVectorIcLj4EEC2Ev(ptr noundef nonnull align 8 dereferenceable(28) %3)
  ret void
}

; Function Attrs: mustprogress nounwind uwtable
define linkonce_odr hidden void @_ZNSt4pairIjjEC2IiiTnNSt9enable_ifIXaaclsr5_PCCPE22_MoveConstructiblePairIT_T0_EEclsr5_PCCPE30_ImplicitlyMoveConvertiblePairIS3_S4_EEEbE4typeELb1EEEOS3_OS4_(ptr noundef nonnull align 4 dereferenceable(8) %0, ptr noundef nonnull align 4 dereferenceable(4) %1, ptr noundef nonnull align 4 dereferenceable(4) %2) unnamed_addr #0 comdat align 2 {
  %4 = alloca ptr, align 8
  %5 = alloca ptr, align 8
  %6 = alloca ptr, align 8
  store ptr %0, ptr %4, align 8
  store ptr %1, ptr %5, align 8
  store ptr %2, ptr %6, align 8
  %7 = load ptr, ptr %4, align 8
  %8 = getelementptr inbounds nuw %"struct.std::pair.255", ptr %7, i32 0, i32 0
  %9 = load ptr, ptr %5, align 8
  %10 = load i32, ptr %9, align 4
  store i32 %10, ptr %8, align 4
  %11 = getelementptr inbounds nuw %"struct.std::pair.255", ptr %7, i32 0, i32 1
  %12 = load ptr, ptr %6, align 8
  %13 = load i32, ptr %12, align 4
  store i32 %13, ptr %11, align 4
  ret void
}

; Function Attrs: mustprogress nounwind uwtable
define linkonce_odr hidden void @_ZN4llvm11raw_ostreamC2EbNS0_11OStreamKindE(ptr noundef nonnull align 8 dereferenceable(48) %0, i1 noundef zeroext %1, i32 noundef %2) unnamed_addr #0 comdat align 2 {
  %4 = alloca ptr, align 8
  %5 = alloca i8, align 1
  %6 = alloca i32, align 4
  store ptr %0, ptr %4, align 8
  %7 = zext i1 %1 to i8
  store i8 %7, ptr %5, align 1
  store i32 %2, ptr %6, align 4
  %8 = load ptr, ptr %4, align 8
  store ptr getelementptr inbounds inrange(-16, 104) ({ [15 x ptr] }, ptr @_ZTVN4llvm11raw_ostreamE, i32 0, i32 0, i32 2), ptr %8, align 8
  %9 = getelementptr inbounds nuw %"class.llvm::raw_ostream", ptr %8, i32 0, i32 1
  %10 = load i32, ptr %6, align 4
  store i32 %10, ptr %9, align 8
  %11 = getelementptr inbounds nuw %"class.llvm::raw_ostream", ptr %8, i32 0, i32 5
  store i8 0, ptr %11, align 8
  %12 = getelementptr inbounds nuw %"class.llvm::raw_ostream", ptr %8, i32 0, i32 6
  %13 = load i8, ptr %5, align 1
  %14 = trunc i8 %13 to i1
  %15 = select i1 %14, i32 0, i32 1
  store i32 %15, ptr %12, align 4
  %16 = getelementptr inbounds nuw %"class.llvm::raw_ostream", ptr %8, i32 0, i32 4
  store ptr null, ptr %16, align 8
  %17 = getelementptr inbounds nuw %"class.llvm::raw_ostream", ptr %8, i32 0, i32 3
  store ptr null, ptr %17, align 8
  %18 = getelementptr inbounds nuw %"class.llvm::raw_ostream", ptr %8, i32 0, i32 2
  store ptr null, ptr %18, align 8
  ret void
}

; Function Attrs: mustprogress nounwind uwtable
define linkonce_odr hidden void @_ZN4llvm21formatted_raw_ostreamD2Ev(ptr noundef nonnull align 8 dereferenceable(105) %0) unnamed_addr #0 comdat align 2 {
  %2 = alloca ptr, align 8
  store ptr %0, ptr %2, align 8
  %3 = load ptr, ptr %2, align 8
  store ptr getelementptr inbounds inrange(-16, 104) ({ [15 x ptr] }, ptr @_ZTVN4llvm21formatted_raw_ostreamE, i32 0, i32 0, i32 2), ptr %3, align 8
  call void @_ZN4llvm11raw_ostream5flushEv(ptr noundef nonnull align 8 dereferenceable(48) %3)
  call void @_ZN4llvm21formatted_raw_ostream13releaseStreamEv(ptr noundef nonnull align 8 dereferenceable(105) %3)
  %4 = getelementptr inbounds nuw %"class.llvm::formatted_raw_ostream", ptr %3, i32 0, i32 4
  call void @_ZN4llvm11SmallStringILj4EED2Ev(ptr noundef nonnull align 8 dereferenceable(28) %4) #11
  call void @_ZN4llvm11raw_ostreamD2Ev(ptr noundef nonnull align 8 dereferenceable(48) %3) #11
  ret void
}

; Function Attrs: mustprogress nounwind uwtable
define linkonce_odr hidden void @_ZN4llvm21formatted_raw_ostreamC2ERNS_11raw_ostreamE(ptr noundef nonnull align 8 dereferenceable(105) %0, ptr noundef nonnull align 8 dereferenceable(48) %1) unnamed_addr #0 comdat align 2 {
  %3 = alloca ptr, align 8
  %4 = alloca ptr, align 8
  %5 = alloca i32, align 4
  %6 = alloca i32, align 4
  store ptr %0, ptr %3, align 8
  store ptr %1, ptr %4, align 8
  %7 = load ptr, ptr %3, align 8
  call void @_ZN4llvm11raw_ostreamC2EbNS0_11OStreamKindE(ptr noundef nonnull align 8 dereferenceable(48) %7, i1 noundef zeroext false, i32 noundef 0)
  store ptr getelementptr inbounds inrange(-16, 104) ({ [15 x ptr] }, ptr @_ZTVN4llvm21formatted_raw_ostreamE, i32 0, i32 0, i32 2), ptr %7, align 8
  %8 = getelementptr inbounds nuw %"class.llvm::formatted_raw_ostream", ptr %7, i32 0, i32 1
  store ptr null, ptr %8, align 8
  %9 = getelementptr inbounds nuw %"class.llvm::formatted_raw_ostream", ptr %7, i32 0, i32 2
  store i32 0, ptr %5, align 4
  store i32 0, ptr %6, align 4
  call void @_ZNSt4pairIjjEC2IiiTnNSt9enable_ifIXaaclsr5_PCCPE22_MoveConstructiblePairIT_T0_EEclsr5_PCCPE30_ImplicitlyMoveConvertiblePairIS3_S4_EEEbE4typeELb1EEEOS3_OS4_(ptr noundef nonnull align 4 dereferenceable(8) %9, ptr noundef nonnull align 4 dereferenceable(4) %5, ptr noundef nonnull align 4 dereferenceable(4) %6)
  %10 = getelementptr inbounds nuw %"class.llvm::formatted_raw_ostream", ptr %7, i32 0, i32 4
  call void @_ZN4llvm11SmallStringILj4EEC2Ev(ptr noundef nonnull align 8 dereferenceable(28) %10)
  %11 = getelementptr inbounds nuw %"class.llvm::formatted_raw_ostream", ptr %7, i32 0, i32 5
  store i8 0, ptr %11, align 8
  %12 = load ptr, ptr %4, align 8
  call void @_ZN4llvm21formatted_raw_ostream9setStreamERNS_11raw_ostreamE(ptr noundef nonnull align 8 dereferenceable(105) %7, ptr noundef nonnull align 8 dereferenceable(48) %12)
  ret void
}

; Function Attrs: mustprogress nounwind uwtable
define linkonce_odr hidden noundef ptr @_ZNK4llvm11NamedMDNode9getParentEv(ptr noundef nonnull align 8 dereferenceable(64) %0) #0 comdat align 2 {
  %2 = alloca ptr, align 8
  store ptr %0, ptr %2, align 8
  %3 = load ptr, ptr %2, align 8
  %4 = getelementptr inbounds nuw %"class.llvm::NamedMDNode", ptr %3, i32 0, i32 2
  %5 = load ptr, ptr %4, align 8
  ret ptr %5
}

; Function Attrs: mustprogress nounwind uwtable
define dso_local void @_ZNK4llvm11NamedMDNode5printERNS_11raw_ostreamEb(ptr noundef nonnull align 8 dereferenceable(64) %0, ptr noundef nonnull align 8 dereferenceable(48) %1, i1 noundef zeroext %2) #0 align 2 {
  %4 = alloca ptr, align 8
  %5 = alloca ptr, align 8
  %6 = alloca i8, align 1
  %7 = alloca %"class.llvm::SlotTracker", align 8
  %8 = alloca %"class.llvm::formatted_raw_ostream", align 8
  %9 = alloca %"class.(anonymous namespace)::AssemblyWriter", align 8
  store ptr %0, ptr %4, align 8
  store ptr %1, ptr %5, align 8
  %10 = zext i1 %2 to i8
  store i8 %10, ptr %6, align 1
  %11 = load ptr, ptr %4, align 8
  %12 = call noundef ptr @_ZNK4llvm11NamedMDNode9getParentEv(ptr noundef nonnull align 8 dereferenceable(64) %11)
  call void @_ZN4llvm11SlotTrackerC1EPKNS_6ModuleEb(ptr noundef nonnull align 8 dereferenceable(356) %7, ptr noundef %12, i1 noundef zeroext false)
  %13 = load ptr, ptr %5, align 8
  call void @_ZN4llvm21formatted_raw_ostreamC2ERNS_11raw_ostreamE(ptr noundef nonnull align 8 dereferenceable(105) %8, ptr noundef nonnull align 8 dereferenceable(48) %13)
  %14 = call noundef ptr @_ZNK4llvm11NamedMDNode9getParentEv(ptr noundef nonnull align 8 dereferenceable(64) %11)
  %15 = load i8, ptr %6, align 1
  %16 = trunc i8 %15 to i1
  call void @_ZN12_GLOBAL__N_114AssemblyWriterC2ERN4llvm21formatted_raw_ostreamERNS1_11SlotTrackerEPKNS1_6ModuleEPNS1_24AssemblyAnnotationWriterEbb(ptr noundef nonnull align 8 dereferenceable(616) %9, ptr noundef nonnull align 8 dereferenceable(105) %8, ptr noundef nonnull align 8 dereferenceable(356) %7, ptr noundef %14, ptr noundef null, i1 noundef zeroext %16, i1 noundef zeroext false)
  call void @_ZN12_GLOBAL__N_114AssemblyWriter16printNamedMDNodeEPKN4llvm11NamedMDNodeE(ptr noundef nonnull align 8 dereferenceable(616) %9, ptr noundef %11)
  call void @_ZN12_GLOBAL__N_114AssemblyWriterD2Ev(ptr noundef nonnull align 8 dereferenceable(616) %9) #11
  call void @_ZN4llvm21formatted_raw_ostreamD2Ev(ptr noundef nonnull align 8 dereferenceable(105) %8) #11
  call void @_ZN4llvm11SlotTrackerD2Ev(ptr noundef nonnull align 8 dereferenceable(356) %7) #11
  ret void
}