; Function Attrs: mustprogress nounwind uwtable
define dso_local void @_ZNK4llvm11NamedMDNode5printERNS_11raw_ostreamEb(ptr noundef nonnull align 8 dereferenceable(64) %0, ptr noundef nonnull align 8 dereferenceable(48) %1, i1 noundef zeroext %2) local_unnamed_addr #1 align 2 {
  %4 = alloca %"class.llvm::SlotTracker", align 8
  %5 = alloca %"class.llvm::formatted_raw_ostream", align 8
  %6 = alloca %"class.(anonymous namespace)::AssemblyWriter", align 8
  %7 = getelementptr inbounds nuw i8, ptr %0, i64 48
  %8 = load ptr, ptr %7, align 8
  call void @_ZN4llvm11SlotTrackerC1EPKNS_6ModuleEb(ptr noundef nonnull align 8 dereferenceable(356) %4, ptr noundef %8, i1 noundef zeroext false) #25
  %9 = getelementptr inbounds nuw i8, ptr %5, i64 8
  store i32 0, ptr %9, align 8
  %10 = getelementptr inbounds nuw i8, ptr %5, i64 40
  store i8 0, ptr %10, align 8
  %11 = getelementptr inbounds nuw i8, ptr %5, i64 44
  store i32 1, ptr %11, align 4
  %12 = getelementptr inbounds nuw i8, ptr %5, i64 16
  call void @llvm.memset.p0.i64(ptr noundef nonnull align 8 dereferenceable(24) %12, i8 0, i64 24, i1 false)
  store ptr getelementptr inbounds inrange(-16, 104) (i8, ptr @_ZTVN4llvm21formatted_raw_ostreamE, i64 16), ptr %5, align 8
  %13 = getelementptr inbounds nuw i8, ptr %5, i64 48
  %14 = getelementptr inbounds nuw i8, ptr %5, i64 72
  %15 = getelementptr inbounds i8, ptr %5, i64 96
  call void @llvm.memset.p0.i64(ptr noundef nonnull align 8 dereferenceable(16) %13, i8 0, i64 16, i1 false)
  call void @_ZN4llvm15SmallVectorBaseImEC2EPvm(ptr noundef nonnull align 8 dereferenceable(24) %14, ptr noundef nonnull %15, i64 noundef 4) #25
  %16 = getelementptr inbounds nuw i8, ptr %5, i64 104
  store i8 0, ptr %16, align 8
  call void @_ZN4llvm21formatted_raw_ostream9setStreamERNS_11raw_ostreamE(ptr noundef nonnull align 8 dereferenceable(105) %5, ptr noundef nonnull align 8 dereferenceable(48) %1)
  %17 = load ptr, ptr %7, align 8
  call fastcc void @_ZN12_GLOBAL__N_114AssemblyWriterC2ERN4llvm21formatted_raw_ostreamERNS1_11SlotTrackerEPKNS1_6ModuleEPNS1_24AssemblyAnnotationWriterEbb(ptr noundef nonnull align 8 dereferenceable(616) %6, ptr noundef nonnull align 8 dereferenceable(105) %5, ptr noundef nonnull align 8 dereferenceable(356) %4, ptr noundef %17, ptr noundef null, i1 noundef zeroext %2, i1 noundef zeroext false)
  call fastcc void @_ZN12_GLOBAL__N_114AssemblyWriter16printNamedMDNodeEPKN4llvm11NamedMDNodeE(ptr noundef nonnull align 8 dereferenceable(616) %6, ptr noundef nonnull %0)
  call fastcc void @_ZN12_GLOBAL__N_114AssemblyWriterD2Ev(ptr noundef nonnull align 8 dereferenceable(616) %6) #25
  store ptr getelementptr inbounds inrange(-16, 104) (i8, ptr @_ZTVN4llvm21formatted_raw_ostreamE, i64 16), ptr %5, align 8
  %18 = getelementptr inbounds nuw i8, ptr %5, i64 32
  %19 = load ptr, ptr %18, align 8
  %20 = load ptr, ptr %12, align 8
  %.not.i.i = icmp eq ptr %19, %20
  br i1 %.not.i.i, label %_ZN4llvm11raw_ostream5flushEv.exit.i, label %21

21:                                               ; preds = %3
  call void @_ZN4llvm11raw_ostream14flush_nonemptyEv(ptr noundef nonnull align 8 dereferenceable(48) %5) #25
  br label %_ZN4llvm11raw_ostream5flushEv.exit.i

_ZN4llvm11raw_ostream5flushEv.exit.i:             ; preds = %21, %3
  call void @_ZN4llvm21formatted_raw_ostream13releaseStreamEv(ptr noundef nonnull align 8 dereferenceable(105) %5)
  %22 = call noundef i64 @_ZNK4llvm15SmallVectorBaseImE4sizeEv(ptr noundef nonnull align 8 dereferenceable(24) %14) #25
  %23 = load ptr, ptr %14, align 8
  %24 = icmp eq ptr %23, %15
  br i1 %24, label %_ZN4llvm21formatted_raw_ostreamD2Ev.exit, label %25

25:                                               ; preds = %_ZN4llvm11raw_ostream5flushEv.exit.i
  call void @free(ptr noundef %23) #25
  br label %_ZN4llvm21formatted_raw_ostreamD2Ev.exit

_ZN4llvm21formatted_raw_ostreamD2Ev.exit:         ; preds = %_ZN4llvm11raw_ostream5flushEv.exit.i, %25
  call void @_ZN4llvm11raw_ostreamD2Ev(ptr noundef nonnull align 8 dereferenceable(48) %5) #25
  call void @_ZN4llvm11SlotTrackerD2Ev(ptr noundef nonnull align 8 dereferenceable(356) %4) #25
  ret void
}